target datalayout = "e-m:e-p270:32:32-p271:32:32-p272:64:64-i64:64-i128:128-f80:128-n8:16:32:64-S128"
target triple = "x86_64-pc-linux-gnu"

; Function Attrs: mustprogress nounwind uwtable
define internal noundef double @_ZN2cvL9normL2SqrIsdEET0_PKT_i(ptr noundef %0, i32 noundef %1) #1 {
  %3 = alloca ptr, align 8
  %4 = alloca i32, align 4
  %5 = alloca double, align 8
  %6 = alloca i32, align 4
  %7 = alloca double, align 8
  store ptr %0, ptr %3, align 8
  store i32 %1, ptr %4, align 4
  store double 0.000000e+00, ptr %5, align 8
  store i32 0, ptr %6, align 4
  br label %8

8:                                                ; preds = %23, %2
  %9 = load i32, ptr %6, align 4
  %10 = load i32, ptr %4, align 4
  %11 = icmp slt i32 %9, %10
  br i1 %11, label %12, label %26

12:                                               ; preds = %8
  %13 = load ptr, ptr %3, align 8
  %14 = load i32, ptr %6, align 4
  %15 = sext i32 %14 to i64
  %16 = getelementptr inbounds i16, ptr %13, i64 %15
  %17 = load i16, ptr %16, align 2
  %18 = sitofp i16 %17 to double
  store double %18, ptr %7, align 8
  %19 = load double, ptr %7, align 8
  %20 = load double, ptr %7, align 8
  %21 = load double, ptr %5, align 8
  %22 = call double @llvm.fmuladd.f64(double %19, double %20, double %21)
  store double %22, ptr %5, align 8
  br label %23

23:                                               ; preds = %12
  %24 = load i32, ptr %6, align 4
  %25 = add nsw i32 %24, 1
  store i32 %25, ptr %6, align 4
  br label %8, !llvm.loop !78

26:                                               ; preds = %8
  %27 = load double, ptr %5, align 8
  ret double %27
}

; Function Attrs: mustprogress uwtable
define linkonce_odr hidden noundef i32 @_ZN2cv7normL2_IsdEEiPKT_PKhPT0_ii(ptr noundef %0, ptr noundef %1, ptr noundef %2, i32 noundef %3, i32 noundef %4) #0 comdat {
  %6 = alloca ptr, align 8
  %7 = alloca ptr, align 8
  %8 = alloca ptr, align 8
  %9 = alloca i32, align 4
  %10 = alloca i32, align 4
  %11 = alloca double, align 8
  %12 = alloca i32, align 4
  %13 = alloca i32, align 4
  %14 = alloca i16, align 2
  store ptr %0, ptr %6, align 8
  store ptr %1, ptr %7, align 8
  store ptr %2, ptr %8, align 8
  store i32 %3, ptr %9, align 4
  store i32 %4, ptr %10, align 4
  %15 = load ptr, ptr %8, align 8
  %16 = load double, ptr %15, align 8
  store double %16, ptr %11, align 8
  %17 = load ptr, ptr %7, align 8
  %18 = icmp ne ptr %17, null
  br i1 %18, label %27, label %19

19:                                               ; preds = %5
  %20 = load ptr, ptr %6, align 8
  %21 = load i32, ptr %9, align 4
  %22 = load i32, ptr %10, align 4
  %23 = mul nsw i32 %21, %22
  %24 = call noundef double @_ZN2cvL9normL2SqrIsdEET0_PKT_i(ptr noundef %20, i32 noundef %23)
  %25 = load double, ptr %11, align 8
  %26 = fadd double %25, %24
  store double %26, ptr %11, align 8
  br label %70

27:                                               ; preds = %5
  store i32 0, ptr %12, align 4
  br label %28

28:                                               ; preds = %62, %27
  %29 = load i32, ptr %12, align 4
  %30 = load i32, ptr %9, align 4
  %31 = icmp slt i32 %29, %30
  br i1 %31, label %32, label %69

32:                                               ; preds = %28
  %33 = load ptr, ptr %7, align 8
  %34 = load i32, ptr %12, align 4
  %35 = sext i32 %34 to i64
  %36 = getelementptr inbounds i8, ptr %33, i64 %35
  %37 = load i8, ptr %36, align 1
  %38 = icmp ne i8 %37, 0
  br i1 %38, label %39, label %61

39:                                               ; preds = %32
  store i32 0, ptr %13, align 4
  br label %40

40:                                               ; preds = %57, %39
  %41 = load i32, ptr %13, align 4
  %42 = load i32, ptr %10, align 4
  %43 = icmp slt i32 %41, %42
  br i1 %43, label %44, label %60

44:                                               ; preds = %40
  %45 = load ptr, ptr %6, align 8
  %46 = load i32, ptr %13, align 4
  %47 = sext i32 %46 to i64
  %48 = getelementptr inbounds i16, ptr %45, i64 %47
  %49 = load i16, ptr %48, align 2
  store i16 %49, ptr %14, align 2
  %50 = load i16, ptr %14, align 2
  %51 = sitofp i16 %50 to double
  %52 = load i16, ptr %14, align 2
  %53 = sext i16 %52 to i32
  %54 = sitofp i32 %53 to double
  %55 = load double, ptr %11, align 8
  %56 = call double @llvm.fmuladd.f64(double %51, double %54, double %55)
  store double %56, ptr %11, align 8
  br label %57

57:                                               ; preds = %44
  %58 = load i32, ptr %13, align 4
  %59 = add nsw i32 %58, 1
  store i32 %59, ptr %13, align 4
  br label %40, !llvm.loop !76

60:                                               ; preds = %40
  br label %61

61:                                               ; preds = %60, %32
  br label %62

62:                                               ; preds = %61
  %63 = load i32, ptr %12, align 4
  %64 = add nsw i32 %63, 1
  store i32 %64, ptr %12, align 4
  %65 = load i32, ptr %10, align 4
  %66 = load ptr, ptr %6, align 8
  %67 = sext i32 %65 to i64
  %68 = getelementptr inbounds i16, ptr %66, i64 %67
  store ptr %68, ptr %6, align 8
  br label %28, !llvm.loop !77

69:                                               ; preds = %28
  br label %70

70:                                               ; preds = %69, %19
  %71 = load double, ptr %11, align 8
  %72 = load ptr, ptr %8, align 8
  store double %71, ptr %72, align 8
  ret i32 0
}

; Function Attrs: mustprogress uwtable
define internal noundef i32 @_ZN2cvL10normL2_16sEPKsPKhPdii(ptr noundef %0, ptr noundef %1, ptr noundef %2, i32 noundef %3, i32 noundef %4) #0 {
  %6 = alloca ptr, align 8
  %7 = alloca ptr, align 8
  %8 = alloca ptr, align 8
  %9 = alloca i32, align 4
  %10 = alloca i32, align 4
  store ptr %0, ptr %6, align 8
  store ptr %1, ptr %7, align 8
  store ptr %2, ptr %8, align 8
  store i32 %3, ptr %9, align 4
  store i32 %4, ptr %10, align 4
  %11 = load ptr, ptr %6, align 8
  %12 = load ptr, ptr %7, align 8
  %13 = load ptr, ptr %8, align 8
  %14 = load i32, ptr %9, align 4
  %15 = load i32, ptr %10, align 4
  %16 = call noundef i32 @_ZN2cv7normL2_IsdEEiPKT_PKhPT0_ii(ptr noundef %11, ptr noundef %12, ptr noundef %13, i32 noundef %14, i32 noundef %15)
  ret i32 %16
}